target datalayout = "e-m:e-p270:32:32-p271:32:32-p272:64:64-i64:64-i128:128-f80:128-n8:16:32:64-S128"
target triple = "x86_64-pc-linux-gnu"

%struct.AVFilterContext = type { ptr, ptr, ptr, ptr, ptr, i32, ptr, ptr, i32, ptr, ptr, i32, i32, ptr, ptr, ptr, ptr, i32, ptr, i32, i32 }
%struct.ThumbContext = type { ptr, i32, i32, i32, ptr, %struct.AVRational, i32, ptr, [4 x i32], [4 x i32] }
%struct.AVRational = type { i32, i32 }
%struct.thumb_frame = type { ptr, [768 x i32] }

; Function Attrs: cold nounwind optsize uwtable
define internal void @uninit(ptr noundef %0) #0 {
  %2 = alloca ptr, align 8
  %3 = alloca i32, align 4
  %4 = alloca ptr, align 8
  store ptr %0, ptr %2, align 8, !tbaa !4
  call void @llvm.lifetime.start.p0(i64 4, ptr %3) #10
  call void @llvm.lifetime.start.p0(i64 8, ptr %4) #10
  %5 = load ptr, ptr %2, align 8, !tbaa !4
  %6 = getelementptr inbounds nuw %struct.AVFilterContext, ptr %5, i32 0, i32 9
  %7 = load ptr, ptr %6, align 8, !tbaa !9
  store ptr %7, ptr %4, align 8, !tbaa !22
  store i32 0, ptr %3, align 4, !tbaa !30
  br label %8

8:                                                ; preds = %39, %1
  %9 = load i32, ptr %3, align 4, !tbaa !30
  %10 = load ptr, ptr %4, align 8, !tbaa !22
  %11 = getelementptr inbounds nuw %struct.ThumbContext, ptr %10, i32 0, i32 3
  %12 = load i32, ptr %11, align 8, !tbaa !24
  %13 = icmp slt i32 %9, %12
  br i1 %13, label %14, label %29

14:                                               ; preds = %8
  %15 = load ptr, ptr %4, align 8, !tbaa !22
  %16 = getelementptr inbounds nuw %struct.ThumbContext, ptr %15, i32 0, i32 4
  %17 = load ptr, ptr %16, align 8, !tbaa !29
  %18 = icmp ne ptr %17, null
  br i1 %18, label %19, label %29

19:                                               ; preds = %14
  %20 = load ptr, ptr %4, align 8, !tbaa !22
  %21 = getelementptr inbounds nuw %struct.ThumbContext, ptr %20, i32 0, i32 4
  %22 = load ptr, ptr %21, align 8, !tbaa !29
  %23 = load i32, ptr %3, align 4, !tbaa !30
  %24 = sext i32 %23 to i64
  %25 = getelementptr inbounds %struct.thumb_frame, ptr %22, i64 %24
  %26 = getelementptr inbounds nuw %struct.thumb_frame, ptr %25, i32 0, i32 0
  %27 = load ptr, ptr %26, align 8, !tbaa !31
  %28 = icmp ne ptr %27, null
  br label %29

29:                                               ; preds = %19, %14, %8
  %30 = phi i1 [ false, %14 ], [ false, %8 ], [ %28, %19 ]
  br i1 %30, label %31, label %42

31:                                               ; preds = %29
  %32 = load ptr, ptr %4, align 8, !tbaa !22
  %33 = getelementptr inbounds nuw %struct.ThumbContext, ptr %32, i32 0, i32 4
  %34 = load ptr, ptr %33, align 8, !tbaa !29
  %35 = load i32, ptr %3, align 4, !tbaa !30
  %36 = sext i32 %35 to i64
  %37 = getelementptr inbounds %struct.thumb_frame, ptr %34, i64 %36
  %38 = getelementptr inbounds nuw %struct.thumb_frame, ptr %37, i32 0, i32 0
  call void @av_frame_free(ptr noundef %38)
  br label %39

39:                                               ; preds = %31
  %40 = load i32, ptr %3, align 4, !tbaa !30
  %41 = add nsw i32 %40, 1
  store i32 %41, ptr %3, align 4, !tbaa !30
  br label %8, !llvm.loop !34

42:                                               ; preds = %29
  %43 = load ptr, ptr %4, align 8, !tbaa !22
  %44 = getelementptr inbounds nuw %struct.ThumbContext, ptr %43, i32 0, i32 4
  call void @av_freep(ptr noundef %44)
  %45 = load ptr, ptr %4, align 8, !tbaa !22
  %46 = getelementptr inbounds nuw %struct.ThumbContext, ptr %45, i32 0, i32 7
  call void @av_freep(ptr noundef %46)
  call void @llvm.lifetime.end.p0(i64 8, ptr %4) #10
  call void @llvm.lifetime.end.p0(i64 4, ptr %3) #10
  ret void
}