; Function Attrs: cold nounwind optsize uwtable
define internal void @uninit(ptr noundef readonly captures(none) %0) #0 {
  %2 = getelementptr inbounds nuw i8, ptr %0, i64 72
  %3 = load ptr, ptr %2, align 8, !tbaa !4
  %4 = getelementptr inbounds nuw i8, ptr %3, i64 24
  %5 = getelementptr inbounds nuw i8, ptr %3, i64 16
  %6 = load i32, ptr %5, align 8, !tbaa !20
  %7 = icmp sgt i32 %6, 0
  br i1 %7, label %.lr.ph, label %.critedge

.lr.ph:                                           ; preds = %1, %12
  %indvars.iv = phi i64 [ %indvars.iv.next, %12 ], [ 0, %1 ]
  %8 = load ptr, ptr %4, align 8, !tbaa !25
  %.not = icmp eq ptr %8, null
  br i1 %.not, label %.critedge, label %9

9:                                                ; preds = %.lr.ph
  %10 = getelementptr inbounds nuw %struct.thumb_frame, ptr %8, i64 %indvars.iv
  %11 = load ptr, ptr %10, align 8, !tbaa !26
  %.not11 = icmp eq ptr %11, null
  br i1 %.not11, label %.critedge, label %12

12:                                               ; preds = %9
  tail call void @av_frame_free(ptr noundef nonnull %10) #9
  %indvars.iv.next = add nuw nsw i64 %indvars.iv, 1
  %13 = load i32, ptr %5, align 8, !tbaa !20
  %14 = sext i32 %13 to i64
  %15 = icmp slt i64 %indvars.iv.next, %14
  br i1 %15, label %.lr.ph, label %.critedge, !llvm.loop !29

.critedge:                                        ; preds = %9, %12, %.lr.ph, %1
  tail call void @av_freep(ptr noundef nonnull %4) #9
  %16 = getelementptr inbounds nuw i8, ptr %3, i64 48
  tail call void @av_freep(ptr noundef nonnull %16) #9
  ret void
}